target datalayout = "e-m:e-p270:32:32-p271:32:32-p272:64:64-i64:64-i128:128-f80:128-n8:16:32:64-S128"
target triple = "x86_64-pc-linux-gnu"

%struct._object = type { %union.anon, ptr }
%union.anon = type { i64 }
%struct.PyVarObject = type { %struct._object, i64 }
%struct._typeobject = type { %struct.PyVarObject, ptr, i64, i64, ptr, i64, ptr, ptr, ptr, ptr, ptr, ptr, ptr, ptr, ptr, ptr, ptr, ptr, ptr, i64, ptr, ptr, ptr, ptr, i64, ptr, ptr, ptr, ptr, ptr, ptr, ptr, ptr, ptr, i64, ptr, ptr, ptr, ptr, ptr, ptr, ptr, ptr, ptr, ptr, ptr, i32, ptr, ptr, i8, i16 }
%struct.PyMemberDef = type { ptr, i32, i64, i32, ptr }

@PyExc_TypeError = external global ptr, align 8
@.str.31 = private unnamed_addr constant [48 x i8] c"type '%s' does not have Py_TPFLAGS_ITEMS_AT_END\00", align 1

; Function Attrs: inlinehint nounwind uwtable
define internal i32 @PyType_HasFeature(ptr noundef %0, i64 noundef %1) #2 {
  %3 = alloca ptr, align 8
  %4 = alloca i64, align 8
  %5 = alloca i64, align 8
  store ptr %0, ptr %3, align 8, !tbaa !9
  store i64 %1, ptr %4, align 8, !tbaa !11
  call void @llvm.lifetime.start.p0(i64 8, ptr %5) #11
  %6 = load ptr, ptr %3, align 8, !tbaa !9
  %7 = getelementptr inbounds nuw %struct._typeobject, ptr %6, i32 0, i32 19
  %8 = load i64, ptr %7, align 8, !tbaa !105
  store i64 %8, ptr %5, align 8, !tbaa !11
  %9 = load i64, ptr %5, align 8, !tbaa !11
  %10 = load i64, ptr %4, align 8, !tbaa !11
  %11 = and i64 %9, %10
  %12 = icmp ne i64 %11, 0
  %13 = zext i1 %12 to i32
  call void @llvm.lifetime.end.p0(i64 8, ptr %5) #11
  ret i32 %13
}

; Function Attrs: nounwind uwtable
define dso_local ptr @PyObject_GetItemData(ptr noundef %0) #0 {
  %2 = alloca ptr, align 8
  %3 = alloca ptr, align 8
  store ptr %0, ptr %3, align 8, !tbaa !97
  %4 = load ptr, ptr %3, align 8, !tbaa !97
  %5 = call ptr @_Py_TYPE(ptr noundef %4)
  %6 = call i32 @PyType_HasFeature(ptr noundef %5, i64 noundef 8388608)
  %7 = icmp ne i32 %6, 0
  br i1 %7, label %15, label %8

8:                                                ; preds = %1
  %9 = load ptr, ptr @PyExc_TypeError, align 8, !tbaa !97
  %10 = load ptr, ptr %3, align 8, !tbaa !97
  %11 = call ptr @_Py_TYPE(ptr noundef %10)
  %12 = getelementptr inbounds nuw %struct._typeobject, ptr %11, i32 0, i32 1
  %13 = load ptr, ptr %12, align 8, !tbaa !239
  %14 = call ptr (ptr, ptr, ...) @PyErr_Format(ptr noundef %9, ptr noundef @.str.31, ptr noundef %13)
  store ptr null, ptr %2, align 8
  br label %22

15:                                               ; preds = %1
  %16 = load ptr, ptr %3, align 8, !tbaa !97
  %17 = load ptr, ptr %3, align 8, !tbaa !97
  %18 = call ptr @_Py_TYPE(ptr noundef %17)
  %19 = getelementptr inbounds nuw %struct._typeobject, ptr %18, i32 0, i32 2
  %20 = load i64, ptr %19, align 8, !tbaa !245
  %21 = getelementptr i8, ptr %16, i64 %20
  store ptr %21, ptr %2, align 8
  br label %22

22:                                               ; preds = %15, %8
  %23 = load ptr, ptr %2, align 8
  ret ptr %23
}

; Function Attrs: inlinehint nounwind uwtable
define internal ptr @_PyHeapType_GET_MEMBERS(ptr noundef %0) #2 {
  %2 = alloca ptr, align 8
  store ptr %0, ptr %2, align 8, !tbaa !240
  %3 = load ptr, ptr %2, align 8, !tbaa !240
  %4 = call ptr @PyObject_GetItemData(ptr noundef %3)
  ret ptr %4
}

; Function Attrs: nounwind uwtable
define internal i32 @traverse_slots(ptr noundef %0, ptr noundef %1, ptr noundef %2, ptr noundef %3) #0 {
  %5 = alloca i32, align 4
  %6 = alloca ptr, align 8
  %7 = alloca ptr, align 8
  %8 = alloca ptr, align 8
  %9 = alloca ptr, align 8
  %10 = alloca i64, align 8
  %11 = alloca i64, align 8
  %12 = alloca ptr, align 8
  %13 = alloca ptr, align 8
  %14 = alloca ptr, align 8
  %15 = alloca i32, align 4
  %16 = alloca i32, align 4
  store ptr %0, ptr %6, align 8, !tbaa !9
  store ptr %1, ptr %7, align 8, !tbaa !97
  store ptr %2, ptr %8, align 8, !tbaa !13
  store ptr %3, ptr %9, align 8, !tbaa !13
  call void @llvm.lifetime.start.p0(i64 8, ptr %10) #11
  call void @llvm.lifetime.start.p0(i64 8, ptr %11) #11
  call void @llvm.lifetime.start.p0(i64 8, ptr %12) #11
  %17 = load ptr, ptr %6, align 8, !tbaa !9
  %18 = call i64 @Py_SIZE(ptr noundef %17)
  store i64 %18, ptr %11, align 8, !tbaa !11
  %19 = load ptr, ptr %6, align 8, !tbaa !9
  %20 = call ptr @_PyHeapType_GET_MEMBERS(ptr noundef %19)
  store ptr %20, ptr %12, align 8, !tbaa !256
  store i64 0, ptr %10, align 8, !tbaa !11
  br label %21

21:                                               ; preds = %58, %4
  %22 = load i64, ptr %10, align 8, !tbaa !11
  %23 = load i64, ptr %11, align 8, !tbaa !11
  %24 = icmp slt i64 %22, %23
  br i1 %24, label %25, label %63

25:                                               ; preds = %21
  %26 = load ptr, ptr %12, align 8, !tbaa !256
  %27 = getelementptr inbounds nuw %struct.PyMemberDef, ptr %26, i32 0, i32 1
  %28 = load i32, ptr %27, align 8, !tbaa !301
  %29 = icmp eq i32 %28, 16
  br i1 %29, label %30, label %57

30:                                               ; preds = %25
  call void @llvm.lifetime.start.p0(i64 8, ptr %13) #11
  %31 = load ptr, ptr %7, align 8, !tbaa !97
  %32 = load ptr, ptr %12, align 8, !tbaa !256
  %33 = getelementptr inbounds nuw %struct.PyMemberDef, ptr %32, i32 0, i32 2
  %34 = load i64, ptr %33, align 8, !tbaa !266
  %35 = getelementptr i8, ptr %31, i64 %34
  store ptr %35, ptr %13, align 8, !tbaa !123
  call void @llvm.lifetime.start.p0(i64 8, ptr %14) #11
  %36 = load ptr, ptr %13, align 8, !tbaa !123
  %37 = load ptr, ptr %36, align 8, !tbaa !97
  store ptr %37, ptr %14, align 8, !tbaa !97
  %38 = load ptr, ptr %14, align 8, !tbaa !97
  %39 = icmp ne ptr %38, null
  br i1 %39, label %40, label %53

40:                                               ; preds = %30
  call void @llvm.lifetime.start.p0(i64 4, ptr %15) #11
  %41 = load ptr, ptr %8, align 8, !tbaa !13
  %42 = load ptr, ptr %14, align 8, !tbaa !97
  %43 = load ptr, ptr %9, align 8, !tbaa !13
  %44 = call i32 %41(ptr noundef %42, ptr noundef %43)
  store i32 %44, ptr %15, align 4, !tbaa !115
  %45 = load i32, ptr %15, align 4, !tbaa !115
  %46 = icmp ne i32 %45, 0
  br i1 %46, label %47, label %49

47:                                               ; preds = %40
  %48 = load i32, ptr %15, align 4, !tbaa !115
  store i32 %48, ptr %5, align 4
  store i32 1, ptr %16, align 4
  br label %50

49:                                               ; preds = %40
  store i32 0, ptr %16, align 4
  br label %50

50:                                               ; preds = %49, %47
  call void @llvm.lifetime.end.p0(i64 4, ptr %15) #11
  %51 = load i32, ptr %16, align 4
  switch i32 %51, label %54 [
    i32 0, label %52
  ]

52:                                               ; preds = %50
  br label %53

53:                                               ; preds = %52, %30
  store i32 0, ptr %16, align 4
  br label %54

54:                                               ; preds = %53, %50
  call void @llvm.lifetime.end.p0(i64 8, ptr %14) #11
  call void @llvm.lifetime.end.p0(i64 8, ptr %13) #11
  %55 = load i32, ptr %16, align 4
  switch i32 %55, label %64 [
    i32 0, label %56
  ]

56:                                               ; preds = %54
  br label %57

57:                                               ; preds = %56, %25
  br label %58

58:                                               ; preds = %57
  %59 = load i64, ptr %10, align 8, !tbaa !11
  %60 = add i64 %59, 1
  store i64 %60, ptr %10, align 8, !tbaa !11
  %61 = load ptr, ptr %12, align 8, !tbaa !256
  %62 = getelementptr %struct.PyMemberDef, ptr %61, i32 1
  store ptr %62, ptr %12, align 8, !tbaa !256
  br label %21, !llvm.loop !447

63:                                               ; preds = %21
  store i32 0, ptr %5, align 4
  store i32 1, ptr %16, align 4
  br label %64

64:                                               ; preds = %63, %54
  call void @llvm.lifetime.end.p0(i64 8, ptr %12) #11
  call void @llvm.lifetime.end.p0(i64 8, ptr %11) #11
  call void @llvm.lifetime.end.p0(i64 8, ptr %10) #11
  %65 = load i32, ptr %5, align 4
  ret i32 %65
}

; Function Attrs: inlinehint nounwind uwtable
define internal i64 @Py_SIZE(ptr noundef %0) #2 {
  %2 = alloca ptr, align 8
  store ptr %0, ptr %2, align 8, !tbaa !97
  %3 = load ptr, ptr %2, align 8, !tbaa !97
  %4 = getelementptr inbounds nuw %struct.PyVarObject, ptr %3, i32 0, i32 1
  %5 = load i64, ptr %4, align 8, !tbaa !375
  ret i64 %5
}

; Function Attrs: inlinehint nounwind uwtable
define internal ptr @_Py_TYPE(ptr noundef %0) #2 {
  %2 = alloca ptr, align 8
  store ptr %0, ptr %2, align 8, !tbaa !97
  %3 = load ptr, ptr %2, align 8, !tbaa !97
  %4 = getelementptr inbounds nuw %struct._object, ptr %3, i32 0, i32 1
  %5 = load ptr, ptr %4, align 8, !tbaa !243
  ret ptr %5
}

; Function Attrs: nounwind uwtable
define internal i32 @subtype_traverse(ptr noundef %0, ptr noundef %1, ptr noundef %2) #0 {
  %4 = alloca i32, align 4
  %5 = alloca ptr, align 8
  %6 = alloca ptr, align 8
  %7 = alloca ptr, align 8
  %8 = alloca ptr, align 8
  %9 = alloca ptr, align 8
  %10 = alloca ptr, align 8
  %11 = alloca i32, align 4
  %12 = alloca i32, align 4
  %13 = alloca i32, align 4
  %14 = alloca ptr, align 8
  %15 = alloca i32, align 4
  %16 = alloca i32, align 4
  store ptr %0, ptr %5, align 8, !tbaa !97
  store ptr %1, ptr %6, align 8, !tbaa !13
  store ptr %2, ptr %7, align 8, !tbaa !13
  call void @llvm.lifetime.start.p0(i64 8, ptr %8) #11
  call void @llvm.lifetime.start.p0(i64 8, ptr %9) #11
  call void @llvm.lifetime.start.p0(i64 8, ptr %10) #11
  %17 = load ptr, ptr %5, align 8, !tbaa !97
  %18 = call ptr @_Py_TYPE(ptr noundef %17)
  store ptr %18, ptr %8, align 8, !tbaa !9
  %19 = load ptr, ptr %8, align 8, !tbaa !9
  store ptr %19, ptr %9, align 8, !tbaa !9
  br label %20

20:                                               ; preds = %43, %3
  %21 = load ptr, ptr %9, align 8, !tbaa !9
  %22 = getelementptr inbounds nuw %struct._typeobject, ptr %21, i32 0, i32 21
  %23 = load ptr, ptr %22, align 8, !tbaa !120
  store ptr %23, ptr %10, align 8, !tbaa !13
  %24 = icmp eq ptr %23, @subtype_traverse
  br i1 %24, label %25, label %47

25:                                               ; preds = %20
  %26 = load ptr, ptr %9, align 8, !tbaa !9
  %27 = call i64 @Py_SIZE(ptr noundef %26)
  %28 = icmp ne i64 %27, 0
  br i1 %28, label %29, label %43

29:                                               ; preds = %25
  call void @llvm.lifetime.start.p0(i64 4, ptr %11) #11
  %30 = load ptr, ptr %9, align 8, !tbaa !9
  %31 = load ptr, ptr %5, align 8, !tbaa !97
  %32 = load ptr, ptr %6, align 8, !tbaa !13
  %33 = load ptr, ptr %7, align 8, !tbaa !13
  %34 = call i32 @traverse_slots(ptr noundef %30, ptr noundef %31, ptr noundef %32, ptr noundef %33)
  store i32 %34, ptr %11, align 4, !tbaa !115
  %35 = load i32, ptr %11, align 4, !tbaa !115
  %36 = icmp ne i32 %35, 0
  br i1 %36, label %37, label %39

37:                                               ; preds = %29
  %38 = load i32, ptr %11, align 4, !tbaa !115
  store i32 %38, ptr %4, align 4
  store i32 1, ptr %12, align 4
  br label %40

39:                                               ; preds = %29
  store i32 0, ptr %12, align 4
  br label %40

40:                                               ; preds = %39, %37
  call void @llvm.lifetime.end.p0(i64 4, ptr %11) #11
  %41 = load i32, ptr %12, align 4
  switch i32 %41, label %155 [
    i32 0, label %42
  ]

42:                                               ; preds = %40
  br label %43

43:                                               ; preds = %42, %25
  %44 = load ptr, ptr %9, align 8, !tbaa !9
  %45 = getelementptr inbounds nuw %struct._typeobject, ptr %44, i32 0, i32 30
  %46 = load ptr, ptr %45, align 8, !tbaa !278
  store ptr %46, ptr %9, align 8, !tbaa !9
  br label %20, !llvm.loop !445

47:                                               ; preds = %20
  %48 = load ptr, ptr %8, align 8, !tbaa !9
  %49 = getelementptr inbounds nuw %struct._typeobject, ptr %48, i32 0, i32 34
  %50 = load i64, ptr %49, align 8, !tbaa !293
  %51 = load ptr, ptr %9, align 8, !tbaa !9
  %52 = getelementptr inbounds nuw %struct._typeobject, ptr %51, i32 0, i32 34
  %53 = load i64, ptr %52, align 8, !tbaa !293
  %54 = icmp ne i64 %50, %53
  br i1 %54, label %55, label %110

55:                                               ; preds = %47
  %56 = load ptr, ptr %8, align 8, !tbaa !9
  %57 = getelementptr inbounds nuw %struct._typeobject, ptr %56, i32 0, i32 19
  %58 = load i64, ptr %57, align 8, !tbaa !105
  %59 = and i64 %58, 16
  %60 = icmp ne i64 %59, 0
  br i1 %60, label %61, label %74

61:                                               ; preds = %55
  call void @llvm.lifetime.start.p0(i64 4, ptr %13) #11
  %62 = load ptr, ptr %5, align 8, !tbaa !97
  %63 = load ptr, ptr %6, align 8, !tbaa !13
  %64 = load ptr, ptr %7, align 8, !tbaa !13
  %65 = call i32 @PyObject_VisitManagedDict(ptr noundef %62, ptr noundef %63, ptr noundef %64)
  store i32 %65, ptr %13, align 4, !tbaa !115
  %66 = load i32, ptr %13, align 4, !tbaa !115
  %67 = icmp ne i32 %66, 0
  br i1 %67, label %68, label %70

68:                                               ; preds = %61
  %69 = load i32, ptr %13, align 4, !tbaa !115
  store i32 %69, ptr %4, align 4
  store i32 1, ptr %12, align 4
  br label %71

70:                                               ; preds = %61
  store i32 0, ptr %12, align 4
  br label %71

71:                                               ; preds = %70, %68
  call void @llvm.lifetime.end.p0(i64 4, ptr %13) #11
  %72 = load i32, ptr %12, align 4
  switch i32 %72, label %155 [
    i32 0, label %73
  ]

73:                                               ; preds = %71
  br label %109

74:                                               ; preds = %55
  call void @llvm.lifetime.start.p0(i64 8, ptr %14) #11
  %75 = load ptr, ptr %5, align 8, !tbaa !97
  %76 = call ptr @_PyObject_ComputedDictPointer(ptr noundef %75)
  store ptr %76, ptr %14, align 8, !tbaa !137
  %77 = load ptr, ptr %14, align 8, !tbaa !137
  %78 = icmp ne ptr %77, null
  br i1 %78, label %79, label %105

79:                                               ; preds = %74
  %80 = load ptr, ptr %14, align 8, !tbaa !137
  %81 = load ptr, ptr %80, align 8, !tbaa !97
  %82 = icmp ne ptr %81, null
  br i1 %82, label %83, label %105

83:                                               ; preds = %79
  br label %84

84:                                               ; preds = %83
  %85 = load ptr, ptr %14, align 8, !tbaa !137
  %86 = load ptr, ptr %85, align 8, !tbaa !97
  %87 = icmp ne ptr %86, null
  br i1 %87, label %88, label %102

88:                                               ; preds = %84
  call void @llvm.lifetime.start.p0(i64 4, ptr %15) #11
  %89 = load ptr, ptr %6, align 8, !tbaa !13
  %90 = load ptr, ptr %14, align 8, !tbaa !137
  %91 = load ptr, ptr %90, align 8, !tbaa !97
  %92 = load ptr, ptr %7, align 8, !tbaa !13
  %93 = call i32 %89(ptr noundef %91, ptr noundef %92)
  store i32 %93, ptr %15, align 4, !tbaa !115
  %94 = load i32, ptr %15, align 4, !tbaa !115
  %95 = icmp ne i32 %94, 0
  br i1 %95, label %96, label %98

96:                                               ; preds = %88
  %97 = load i32, ptr %15, align 4, !tbaa !115
  store i32 %97, ptr %4, align 4
  store i32 1, ptr %12, align 4
  br label %99

98:                                               ; preds = %88
  store i32 0, ptr %12, align 4
  br label %99

99:                                               ; preds = %98, %96
  call void @llvm.lifetime.end.p0(i64 4, ptr %15) #11
  %100 = load i32, ptr %12, align 4
  switch i32 %100, label %106 [
    i32 0, label %101
  ]

101:                                              ; preds = %99
  br label %102

102:                                              ; preds = %101, %84
  br label %103

103:                                              ; preds = %102
  br label %104

104:                                              ; preds = %103
  br label %105

105:                                              ; preds = %104, %79, %74
  store i32 0, ptr %12, align 4
  br label %106

106:                                              ; preds = %105, %99
  call void @llvm.lifetime.end.p0(i64 8, ptr %14) #11
  %107 = load i32, ptr %12, align 4
  switch i32 %107, label %155 [
    i32 0, label %108
  ]

108:                                              ; preds = %106
  br label %109

109:                                              ; preds = %108, %73
  br label %110

110:                                              ; preds = %109, %47
  %111 = load ptr, ptr %8, align 8, !tbaa !9
  %112 = getelementptr inbounds nuw %struct._typeobject, ptr %111, i32 0, i32 19
  %113 = load i64, ptr %112, align 8, !tbaa !105
  %114 = and i64 %113, 512
  %115 = icmp ne i64 %114, 0
  br i1 %115, label %116, label %145

116:                                              ; preds = %110
  %117 = load ptr, ptr %10, align 8, !tbaa !13
  %118 = icmp ne ptr %117, null
  br i1 %118, label %119, label %125

119:                                              ; preds = %116
  %120 = load ptr, ptr %9, align 8, !tbaa !9
  %121 = getelementptr inbounds nuw %struct._typeobject, ptr %120, i32 0, i32 19
  %122 = load i64, ptr %121, align 8, !tbaa !105
  %123 = and i64 %122, 512
  %124 = icmp ne i64 %123, 0
  br i1 %124, label %145, label %125

125:                                              ; preds = %119, %116
  br label %126

126:                                              ; preds = %125
  %127 = load ptr, ptr %8, align 8, !tbaa !9
  %128 = icmp ne ptr %127, null
  br i1 %128, label %129, label %142

129:                                              ; preds = %126
  call void @llvm.lifetime.start.p0(i64 4, ptr %16) #11
  %130 = load ptr, ptr %6, align 8, !tbaa !13
  %131 = load ptr, ptr %8, align 8, !tbaa !9
  %132 = load ptr, ptr %7, align 8, !tbaa !13
  %133 = call i32 %130(ptr noundef %131, ptr noundef %132)
  store i32 %133, ptr %16, align 4, !tbaa !115
  %134 = load i32, ptr %16, align 4, !tbaa !115
  %135 = icmp ne i32 %134, 0
  br i1 %135, label %136, label %138

136:                                              ; preds = %129
  %137 = load i32, ptr %16, align 4, !tbaa !115
  store i32 %137, ptr %4, align 4
  store i32 1, ptr %12, align 4
  br label %139

138:                                              ; preds = %129
  store i32 0, ptr %12, align 4
  br label %139

139:                                              ; preds = %138, %136
  call void @llvm.lifetime.end.p0(i64 4, ptr %16) #11
  %140 = load i32, ptr %12, align 4
  switch i32 %140, label %155 [
    i32 0, label %141
  ]

141:                                              ; preds = %139
  br label %142

142:                                              ; preds = %141, %126
  br label %143

143:                                              ; preds = %142
  br label %144

144:                                              ; preds = %143
  br label %145

145:                                              ; preds = %144, %119, %110
  %146 = load ptr, ptr %10, align 8, !tbaa !13
  %147 = icmp ne ptr %146, null
  br i1 %147, label %148, label %154

148:                                              ; preds = %145
  %149 = load ptr, ptr %10, align 8, !tbaa !13
  %150 = load ptr, ptr %5, align 8, !tbaa !97
  %151 = load ptr, ptr %6, align 8, !tbaa !13
  %152 = load ptr, ptr %7, align 8, !tbaa !13
  %153 = call i32 %149(ptr noundef %150, ptr noundef %151, ptr noundef %152)
  store i32 %153, ptr %4, align 4
  store i32 1, ptr %12, align 4
  br label %155

154:                                              ; preds = %145
  store i32 0, ptr %4, align 4
  store i32 1, ptr %12, align 4
  br label %155

155:                                              ; preds = %154, %148, %139, %106, %71, %40
  call void @llvm.lifetime.end.p0(i64 8, ptr %10) #11
  call void @llvm.lifetime.end.p0(i64 8, ptr %9) #11
  call void @llvm.lifetime.end.p0(i64 8, ptr %8) #11
  %156 = load i32, ptr %4, align 4
  ret i32 %156
}