; Function Attrs: nounwind uwtable
define internal i32 @subtype_traverse(ptr noundef %0, ptr noundef %1, ptr noundef %2) #1 {
  %4 = getelementptr i8, ptr %0, i64 8
  %.val = load ptr, ptr %4, align 8, !tbaa !116
  %5 = getelementptr inbounds nuw i8, ptr %.val, i64 184
  %6 = load ptr, ptr %5, align 8, !tbaa !118
  %7 = icmp eq ptr %6, @subtype_traverse
  br i1 %7, label %.lr.ph, label %._crit_edge

.lr.ph:                                           ; preds = %3, %traverse_slots.exit.thread
  %.05288 = phi ptr [ %36, %traverse_slots.exit.thread ], [ %.val, %3 ]
  %8 = getelementptr i8, ptr %.05288, i64 16
  %.052.val = load i64, ptr %8, align 8, !tbaa !132
  %.not74 = icmp eq i64 %.052.val, 0
  br i1 %.not74, label %traverse_slots.exit.thread, label %9

9:                                                ; preds = %.lr.ph
  %10 = getelementptr i8, ptr %.05288, i64 8
  %.val6.i.i.i = load ptr, ptr %10, align 8, !tbaa !116
  %11 = getelementptr i8, ptr %.val6.i.i.i, i64 168
  %.val7.i.i.i = load i64, ptr %11, align 8, !tbaa !108
  %12 = and i64 %.val7.i.i.i, 8388608
  %.not.i.i.i = icmp eq i64 %12, 0
  br i1 %.not.i.i.i, label %13, label %18

13:                                               ; preds = %9
  %14 = load ptr, ptr @PyExc_TypeError, align 8, !tbaa !105
  %15 = getelementptr inbounds nuw i8, ptr %.val6.i.i.i, i64 24
  %16 = load ptr, ptr %15, align 8, !tbaa !227
  %17 = tail call ptr (ptr, ptr, ...) @PyErr_Format(ptr noundef %14, ptr noundef nonnull @.str.31, ptr noundef %16) #24
  br label %_PyHeapType_GET_MEMBERS.exit.i

18:                                               ; preds = %9
  %19 = getelementptr inbounds nuw i8, ptr %.val6.i.i.i, i64 32
  %20 = load i64, ptr %19, align 8, !tbaa !232
  %21 = getelementptr i8, ptr %.05288, i64 %20
  br label %_PyHeapType_GET_MEMBERS.exit.i

_PyHeapType_GET_MEMBERS.exit.i:                   ; preds = %18, %13
  %.0.i.i.i = phi ptr [ %21, %18 ], [ null, %13 ]
  %22 = icmp sgt i64 %.052.val, 0
  br i1 %22, label %.lr.ph.i, label %traverse_slots.exit.thread

.lr.ph.i:                                         ; preds = %_PyHeapType_GET_MEMBERS.exit.i, %.thread.i
  %.02129.i = phi i64 [ %33, %.thread.i ], [ 0, %_PyHeapType_GET_MEMBERS.exit.i ]
  %.02228.i = phi ptr [ %34, %.thread.i ], [ %.0.i.i.i, %_PyHeapType_GET_MEMBERS.exit.i ]
  %23 = getelementptr inbounds nuw i8, ptr %.02228.i, i64 8
  %24 = load i32, ptr %23, align 8, !tbaa !277
  %25 = icmp eq i32 %24, 16
  br i1 %25, label %26, label %.thread.i

26:                                               ; preds = %.lr.ph.i
  %27 = getelementptr inbounds nuw i8, ptr %.02228.i, i64 16
  %28 = load i64, ptr %27, align 8, !tbaa !251
  %29 = getelementptr i8, ptr %0, i64 %28
  %30 = load ptr, ptr %29, align 8, !tbaa !105
  %.not.i = icmp eq ptr %30, null
  br i1 %.not.i, label %.thread.i, label %31

31:                                               ; preds = %26
  %32 = tail call i32 %1(ptr noundef nonnull %30, ptr noundef %2) #24
  %.not25.i = icmp eq i32 %32, 0
  br i1 %.not25.i, label %.thread.i, label %traverse_slots.exit

.thread.i:                                        ; preds = %31, %26, %.lr.ph.i
  %33 = add nuw nsw i64 %.02129.i, 1
  %34 = getelementptr i8, ptr %.02228.i, i64 40
  %exitcond.not.i = icmp eq i64 %33, %.052.val
  br i1 %exitcond.not.i, label %traverse_slots.exit.thread, label %.lr.ph.i, !llvm.loop !468

traverse_slots.exit.thread:                       ; preds = %.thread.i, %_PyHeapType_GET_MEMBERS.exit.i, %.lr.ph
  %35 = getelementptr inbounds nuw i8, ptr %.05288, i64 256
  %36 = load ptr, ptr %35, align 8, !tbaa !237
  %37 = getelementptr inbounds nuw i8, ptr %36, i64 184
  %38 = load ptr, ptr %37, align 8, !tbaa !118
  %39 = icmp eq ptr %38, @subtype_traverse
  br i1 %39, label %.lr.ph, label %._crit_edge, !llvm.loop !469

._crit_edge:                                      ; preds = %traverse_slots.exit.thread, %3
  %.052.lcssa = phi ptr [ %.val, %3 ], [ %36, %traverse_slots.exit.thread ]
  %.lcssa85 = phi ptr [ %6, %3 ], [ %38, %traverse_slots.exit.thread ]
  %40 = getelementptr inbounds nuw i8, ptr %.val, i64 288
  %41 = load i64, ptr %40, align 8, !tbaa !275
  %42 = getelementptr inbounds nuw i8, ptr %.052.lcssa, i64 288
  %43 = load i64, ptr %42, align 8, !tbaa !275
  %.not = icmp eq i64 %41, %43
  br i1 %.not, label %.thread, label %44

44:                                               ; preds = %._crit_edge
  %45 = getelementptr inbounds nuw i8, ptr %.val, i64 168
  %46 = load i64, ptr %45, align 8, !tbaa !108
  %47 = and i64 %46, 16
  %.not65 = icmp eq i64 %47, 0
  br i1 %.not65, label %50, label %48

48:                                               ; preds = %44
  %49 = tail call i32 @PyObject_VisitManagedDict(ptr noundef %0, ptr noundef %1, ptr noundef %2) #24
  %.not69 = icmp eq i32 %49, 0
  br i1 %.not69, label %.thread, label %traverse_slots.exit

50:                                               ; preds = %44
  %51 = tail call ptr @_PyObject_ComputedDictPointer(ptr noundef %0) #24
  %.not66 = icmp eq ptr %51, null
  br i1 %.not66, label %.thread, label %52

52:                                               ; preds = %50
  %53 = load ptr, ptr %51, align 8, !tbaa !105
  %.not67 = icmp eq ptr %53, null
  br i1 %.not67, label %.thread, label %54

54:                                               ; preds = %52
  %55 = tail call i32 %1(ptr noundef nonnull %53, ptr noundef %2) #24
  %.not68 = icmp eq i32 %55, 0
  br i1 %.not68, label %.thread, label %traverse_slots.exit

.thread:                                          ; preds = %50, %52, %48, %54, %._crit_edge
  %56 = getelementptr inbounds nuw i8, ptr %.val, i64 168
  %57 = load i64, ptr %56, align 8, !tbaa !108
  %58 = and i64 %57, 512
  %.not70 = icmp eq i64 %58, 0
  br i1 %.not70, label %67, label %59

59:                                               ; preds = %.thread
  %.not71 = icmp eq ptr %.lcssa85, null
  br i1 %.not71, label %65, label %60

60:                                               ; preds = %59
  %61 = getelementptr inbounds nuw i8, ptr %.052.lcssa, i64 168
  %62 = load i64, ptr %61, align 8, !tbaa !108
  %63 = and i64 %62, 512
  %64 = icmp eq i64 %63, 0
  br i1 %64, label %65, label %.thread83

65:                                               ; preds = %59, %60
  %66 = tail call i32 %1(ptr noundef nonnull %.val, ptr noundef %2) #24
  %.not72 = icmp eq i32 %66, 0
  br i1 %.not72, label %67, label %traverse_slots.exit

67:                                               ; preds = %65, %.thread
  %.not73 = icmp eq ptr %.lcssa85, null
  br i1 %.not73, label %traverse_slots.exit, label %.thread83

.thread83:                                        ; preds = %60, %67
  %68 = tail call i32 %.lcssa85(ptr noundef %0, ptr noundef %1, ptr noundef %2) #24
  br label %traverse_slots.exit

traverse_slots.exit:                              ; preds = %31, %67, %48, %54, %65, %.thread83
  %.3 = phi i32 [ %68, %.thread83 ], [ %66, %65 ], [ %49, %48 ], [ %55, %54 ], [ 0, %67 ], [ %32, %31 ]
  ret i32 %.3
}